target datalayout = "e-m:e-p270:32:32-p271:32:32-p272:64:64-i64:64-i128:128-f80:128-n8:16:32:64-S128"
target triple = "x86_64-pc-linux-gnu"

@.str = private unnamed_addr constant [6 x i8] c"check\00", align 1

; Function Attrs: nounwind uwtable
define i32 @Abc_NtkCheck(ptr noundef %0) #0 {
  %2 = alloca ptr, align 8
  store ptr %0, ptr %2, align 8, !tbaa !3
  %3 = call i32 @Abc_FrameIsFlagEnabled(ptr noundef @.str)
  %4 = icmp ne i32 %3, 0
  br i1 %4, label %5, label %9

5:                                                ; preds = %1
  %6 = load ptr, ptr %2, align 8, !tbaa !3
  %7 = call i32 @Abc_NtkDoCheck(ptr noundef %6)
  %8 = icmp ne i32 %7, 0
  br label %9

9:                                                ; preds = %5, %1
  %10 = phi i1 [ true, %1 ], [ %8, %5 ]
  %11 = zext i1 %10 to i32
  ret i32 %11
}